target datalayout = "e-m:e-p270:32:32-p271:32:32-p272:64:64-i64:64-i128:128-f80:128-n8:16:32:64-S128"
target triple = "x86_64-pc-linux-gnu"

%struct.lv_subject_t = type { %struct.lv_ll_t, %union.lv_subject_value_t, %union.lv_subject_value_t, ptr, i32 }
%struct.lv_ll_t = type { i32, ptr, ptr }
%union.lv_subject_value_t = type { ptr }

; Function Attrs: nounwind uwtable
define ptr @lv_subject_get_previous_pointer(ptr noundef %0) #0 {
  %2 = alloca ptr, align 8
  %3 = alloca ptr, align 8
  store ptr %0, ptr %3, align 8, !tbaa !3
  %4 = load ptr, ptr %3, align 8, !tbaa !3
  %5 = getelementptr inbounds nuw %struct.lv_subject_t, ptr %4, i32 0, i32 4
  %6 = load i32, ptr %5, align 8
  %7 = and i32 %6, 15
  %8 = icmp ne i32 %7, 3
  br i1 %8, label %9, label %12

9:                                                ; preds = %1
  br label %10

10:                                               ; preds = %9
  br label %11

11:                                               ; preds = %10
  store ptr null, ptr %2, align 8
  br label %16

12:                                               ; preds = %1
  %13 = load ptr, ptr %3, align 8, !tbaa !3
  %14 = getelementptr inbounds nuw %struct.lv_subject_t, ptr %13, i32 0, i32 2
  %15 = load ptr, ptr %14, align 8, !tbaa !9
  store ptr %15, ptr %2, align 8
  br label %16

16:                                               ; preds = %12, %11
  %17 = load ptr, ptr %2, align 8
  ret ptr %17
}